target datalayout = "e-m:e-p270:32:32-p271:32:32-p272:64:64-i64:64-i128:128-f80:128-n8:16:32:64-S128"
target triple = "x86_64-pc-linux-gnu"

%union.pthread_mutex_t = type { %struct.__pthread_mutex_s }
%struct.__pthread_mutex_s = type { i32, i32, i32, i32, i32, i16, i16, %struct.__pthread_internal_list }
%struct.__pthread_internal_list = type { ptr, ptr }
%struct.slurm_bb_ops = type { ptr, ptr, ptr, ptr, ptr, ptr, ptr, ptr, ptr, ptr, ptr, ptr, ptr, ptr, ptr, ptr, ptr, ptr, ptr, ptr }
%struct.timeval = type { i64, i64 }
%struct.job_record = type { i32, ptr, ptr, ptr, ptr, i16, i32, i32, i32, ptr, i32, ptr, ptr, i16, ptr, double, i64, ptr, ptr, ptr, ptr, ptr, ptr, i32, ptr, i32, i64, i64, i32, i32, ptr, i16, i64, i64, i8, i32, ptr, ptr, ptr, ptr, ptr, ptr, ptr, ptr, i32, ptr, ptr, i32, ptr, i32, ptr, i32, ptr, i32, ptr, ptr, ptr, ptr, ptr, ptr, i32, i16, i64, ptr, ptr, ptr, ptr, %struct.acct_policy_limit_set_t, i16, ptr, ptr, ptr, ptr, ptr, i32, ptr, ptr, ptr, ptr, ptr, i32, i32, ptr, ptr, ptr, i16, ptr, ptr, i8, ptr, ptr, i64, i64, i8, i32, i32, i8, i32, ptr, i32, i64, i32, ptr, ptr, ptr, i8, i16, i64, i32, ptr, ptr, ptr, ptr, ptr, i16, i32, ptr, ptr, ptr, ptr, i32, ptr, i32, i16, i64, ptr, i32, i32, ptr, i64, ptr, ptr, i64, i32, i32, i64, i32, i32, ptr, ptr, ptr, ptr, ptr, ptr, ptr, ptr, ptr, ptr, ptr, ptr, i32, ptr, i16, i16, i16, i16, ptr, i32, i32, i8, i64 }
%struct.acct_policy_limit_set_t = type { i16, i16, ptr }

@g_context_lock = internal global %union.pthread_mutex_t zeroinitializer, align 8
@.str.1 = private unnamed_addr constant [29 x i8] c"%s: pthread_mutex_lock(): %m\00", align 1
@g_context_cnt = internal global i32 -1, align 4
@ops = internal global ptr null, align 8
@.str.8 = private unnamed_addr constant [31 x i8] c"%s: pthread_mutex_unlock(): %m\00", align 1
@job_list = external global ptr, align 8
@__func__.bb_g_job_try_stage_in = private unnamed_addr constant [22 x i8] c"bb_g_job_try_stage_in\00", align 1

; Function Attrs: nounwind uwtable
define dso_local i32 @bb_g_job_try_stage_in() #0 {
  %1 = alloca %struct.timeval, align 8
  %2 = alloca %struct.timeval, align 8
  %3 = alloca [20 x i8], align 16
  %4 = alloca i64, align 8
  %5 = alloca i32, align 4
  %6 = alloca i32, align 4
  %7 = alloca i32, align 4
  %8 = alloca ptr, align 8
  %9 = alloca ptr, align 8
  %10 = alloca i64, align 8
  %11 = alloca ptr, align 8
  %12 = alloca i32, align 4
  %13 = alloca i32, align 4
  call void @llvm.lifetime.start.p0(i64 16, ptr %1) #7
  call void @llvm.lifetime.start.p0(i64 16, ptr %2) #7
  call void @llvm.lifetime.start.p0(i64 20, ptr %3) #7
  call void @llvm.memset.p0.i64(ptr align 16 %3, i8 0, i64 20, i1 false)
  call void @llvm.lifetime.start.p0(i64 8, ptr %4) #7
  call void @llvm.lifetime.start.p0(i64 4, ptr %5) #7
  call void @llvm.lifetime.start.p0(i64 4, ptr %6) #7
  store i32 1, ptr %6, align 4
  call void @llvm.lifetime.start.p0(i64 4, ptr %7) #7
  call void @llvm.lifetime.start.p0(i64 8, ptr %8) #7
  call void @llvm.lifetime.start.p0(i64 8, ptr %9) #7
  call void @llvm.lifetime.start.p0(i64 8, ptr %10) #7
  %14 = call i64 @time(ptr noundef null) #7
  store i64 %14, ptr %10, align 8
  call void @llvm.lifetime.start.p0(i64 8, ptr %11) #7
  %15 = call i32 @gettimeofday(ptr noundef %1, ptr noundef null) #7
  %16 = call ptr @list_create(ptr noundef null)
  store ptr %16, ptr %11, align 8
  %17 = load ptr, ptr @job_list, align 8
  %18 = call ptr @list_iterator_create(ptr noundef %17)
  store ptr %18, ptr %8, align 8
  br label %19

19:                                               ; preds = %57, %56, %43, %29, %0
  %20 = load ptr, ptr %8, align 8
  %21 = call ptr @list_next(ptr noundef %20)
  store ptr %21, ptr %9, align 8
  %22 = icmp ne ptr %21, null
  br i1 %22, label %23, label %60

23:                                               ; preds = %19
  %24 = load ptr, ptr %9, align 8
  %25 = getelementptr inbounds nuw %struct.job_record, ptr %24, i32 0, i32 60
  %26 = load i32, ptr %25, align 8
  %27 = and i32 %26, 255
  %28 = icmp eq i32 %27, 0
  br i1 %28, label %30, label %29

29:                                               ; preds = %23
  br label %19, !llvm.loop !23

30:                                               ; preds = %23
  %31 = load ptr, ptr %9, align 8
  %32 = getelementptr inbounds nuw %struct.job_record, ptr %31, i32 0, i32 17
  %33 = load ptr, ptr %32, align 8
  %34 = icmp eq ptr %33, null
  br i1 %34, label %43, label %35

35:                                               ; preds = %30
  %36 = load ptr, ptr %9, align 8
  %37 = getelementptr inbounds nuw %struct.job_record, ptr %36, i32 0, i32 17
  %38 = load ptr, ptr %37, align 8
  %39 = getelementptr inbounds i8, ptr %38, i64 0
  %40 = load i8, ptr %39, align 1
  %41 = sext i8 %40 to i32
  %42 = icmp eq i32 %41, 0
  br i1 %42, label %43, label %44

43:                                               ; preds = %35, %30
  br label %19, !llvm.loop !23

44:                                               ; preds = %35
  %45 = load ptr, ptr %9, align 8
  %46 = getelementptr inbounds nuw %struct.job_record, ptr %45, i32 0, i32 124
  %47 = load i64, ptr %46, align 8
  %48 = icmp eq i64 %47, 0
  br i1 %48, label %56, label %49

49:                                               ; preds = %44
  %50 = load ptr, ptr %9, align 8
  %51 = getelementptr inbounds nuw %struct.job_record, ptr %50, i32 0, i32 124
  %52 = load i64, ptr %51, align 8
  %53 = load i64, ptr %10, align 8
  %54 = add nsw i64 %53, 36000
  %55 = icmp sgt i64 %52, %54
  br i1 %55, label %56, label %57

56:                                               ; preds = %49, %44
  br label %19, !llvm.loop !23

57:                                               ; preds = %49
  %58 = load ptr, ptr %11, align 8
  %59 = load ptr, ptr %9, align 8
  call void @list_push(ptr noundef %58, ptr noundef %59)
  br label %19, !llvm.loop !23

60:                                               ; preds = %19
  %61 = load ptr, ptr %8, align 8
  call void @list_iterator_destroy(ptr noundef %61)
  %62 = load ptr, ptr %11, align 8
  call void @list_sort(ptr noundef %62, ptr noundef @_sort_job_queue)
  br label %63

63:                                               ; preds = %60
  call void @llvm.lifetime.start.p0(i64 4, ptr %12) #7
  %64 = call i32 @pthread_mutex_lock(ptr noundef @g_context_lock) #7
  store i32 %64, ptr %12, align 4
  %65 = load i32, ptr %12, align 4
  %66 = icmp ne i32 %65, 0
  br i1 %66, label %67, label %70

67:                                               ; preds = %63
  %68 = load i32, ptr %12, align 4
  %69 = call ptr @__errno_location() #8
  store i32 %68, ptr %69, align 4
  call void (ptr, ...) @fatal_abort(ptr noundef @.str.1, ptr noundef @__func__.bb_g_job_try_stage_in) #9
  unreachable

70:                                               ; preds = %63
  call void @llvm.lifetime.end.p0(i64 4, ptr %12) #7
  br label %71

71:                                               ; preds = %70
  br label %72

72:                                               ; preds = %71
  store i32 0, ptr %5, align 4
  br label %73

73:                                               ; preds = %95, %72
  %74 = load i32, ptr %5, align 4
  %75 = load i32, ptr @g_context_cnt, align 4
  %76 = icmp slt i32 %74, %75
  br i1 %76, label %77, label %98

77:                                               ; preds = %73
  %78 = load ptr, ptr @ops, align 8
  %79 = load i32, ptr %5, align 4
  %80 = sext i32 %79 to i64
  %81 = getelementptr inbounds %struct.slurm_bb_ops, ptr %78, i64 %80
  %82 = getelementptr inbounds nuw %struct.slurm_bb_ops, ptr %81, i32 0, i32 10
  %83 = load ptr, ptr %82, align 8
  %84 = load ptr, ptr %11, align 8
  %85 = call i32 %83(ptr noundef %84)
  store i32 %85, ptr %7, align 4
  %86 = load i32, ptr %6, align 4
  %87 = load i32, ptr %7, align 4
  %88 = icmp sgt i32 %86, %87
  br i1 %88, label %89, label %91

89:                                               ; preds = %77
  %90 = load i32, ptr %6, align 4
  br label %93

91:                                               ; preds = %77
  %92 = load i32, ptr %7, align 4
  br label %93

93:                                               ; preds = %91, %89
  %94 = phi i32 [ %90, %89 ], [ %92, %91 ]
  store i32 %94, ptr %6, align 4
  br label %95

95:                                               ; preds = %93
  %96 = load i32, ptr %5, align 4
  %97 = add nsw i32 %96, 1
  store i32 %97, ptr %5, align 4
  br label %73, !llvm.loop !24

98:                                               ; preds = %73
  br label %99

99:                                               ; preds = %98
  call void @llvm.lifetime.start.p0(i64 4, ptr %13) #7
  %100 = call i32 @pthread_mutex_unlock(ptr noundef @g_context_lock) #7
  store i32 %100, ptr %13, align 4
  %101 = load i32, ptr %13, align 4
  %102 = icmp ne i32 %101, 0
  br i1 %102, label %103, label %106

103:                                              ; preds = %99
  %104 = load i32, ptr %13, align 4
  %105 = call ptr @__errno_location() #8
  store i32 %104, ptr %105, align 4
  call void (ptr, ...) @fatal_abort(ptr noundef @.str.8, ptr noundef @__func__.bb_g_job_try_stage_in) #9
  unreachable

106:                                              ; preds = %99
  call void @llvm.lifetime.end.p0(i64 4, ptr %13) #7
  br label %107

107:                                              ; preds = %106
  br label %108

108:                                              ; preds = %107
  br label %109

109:                                              ; preds = %108
  %110 = load ptr, ptr %11, align 8
  %111 = icmp ne ptr %110, null
  br i1 %111, label %112, label %114

112:                                              ; preds = %109
  %113 = load ptr, ptr %11, align 8
  call void @list_destroy(ptr noundef %113)
  br label %114

114:                                              ; preds = %112, %109
  store ptr null, ptr %11, align 8
  br label %115

115:                                              ; preds = %114
  br label %116

116:                                              ; preds = %115
  br label %117

117:                                              ; preds = %116
  %118 = call i32 @gettimeofday(ptr noundef %2, ptr noundef null) #7
  %119 = getelementptr inbounds [20 x i8], ptr %3, i64 0, i64 0
  call void @slurm_diff_tv_str(ptr noundef %1, ptr noundef %2, ptr noundef %119, i32 noundef 20, ptr noundef @__func__.bb_g_job_try_stage_in, i64 noundef 0, ptr noundef %4)
  br label %120

120:                                              ; preds = %117
  br label %121

121:                                              ; preds = %120
  %122 = load i32, ptr %6, align 4
  call void @llvm.lifetime.end.p0(i64 8, ptr %11) #7
  call void @llvm.lifetime.end.p0(i64 8, ptr %10) #7
  call void @llvm.lifetime.end.p0(i64 8, ptr %9) #7
  call void @llvm.lifetime.end.p0(i64 8, ptr %8) #7
  call void @llvm.lifetime.end.p0(i64 4, ptr %7) #7
  call void @llvm.lifetime.end.p0(i64 4, ptr %6) #7
  call void @llvm.lifetime.end.p0(i64 4, ptr %5) #7
  call void @llvm.lifetime.end.p0(i64 8, ptr %4) #7
  call void @llvm.lifetime.end.p0(i64 20, ptr %3) #7
  call void @llvm.lifetime.end.p0(i64 16, ptr %2) #7
  call void @llvm.lifetime.end.p0(i64 16, ptr %1) #7
  ret i32 %122
}