; Function Attrs: nounwind uwtable
define dso_local range(i32 1, -2147483648) i32 @bb_g_job_try_stage_in() local_unnamed_addr #0 {
  %1 = alloca %struct.timeval, align 8
  %2 = alloca %struct.timeval, align 8
  %3 = alloca [20 x i8], align 16
  %4 = alloca i64, align 8
  call void @llvm.lifetime.start.p0(i64 16, ptr nonnull %1) #11
  call void @llvm.lifetime.start.p0(i64 16, ptr nonnull %2) #11
  call void @llvm.lifetime.start.p0(i64 20, ptr nonnull %3) #11
  call void @llvm.memset.p0.i64(ptr noundef nonnull align 16 dereferenceable(20) %3, i8 0, i64 20, i1 false)
  call void @llvm.lifetime.start.p0(i64 8, ptr nonnull %4) #11
  %5 = tail call i64 @time(ptr noundef null) #11
  %6 = call i32 @gettimeofday(ptr noundef nonnull %1, ptr noundef null) #11
  %7 = tail call ptr @list_create(ptr noundef null) #11
  %8 = load ptr, ptr @job_list, align 8
  %9 = tail call ptr @list_iterator_create(ptr noundef %8) #11
  %10 = tail call ptr @list_next(ptr noundef %9) #11
  %.not36 = icmp eq ptr %10, null
  br i1 %.not36, label %._crit_edge, label %.lr.ph

.lr.ph:                                           ; preds = %0
  %11 = add nsw i64 %5, 36000
  br label %12

12:                                               ; preds = %.lr.ph, %.backedge
  %13 = phi ptr [ %10, %.lr.ph ], [ %25, %.backedge ]
  %14 = getelementptr inbounds nuw i8, ptr %13, i64 448
  %15 = load i32, ptr %14, align 8
  %16 = and i32 %15, 255
  %17 = icmp eq i32 %16, 0
  br i1 %17, label %18, label %.backedge

18:                                               ; preds = %12
  %19 = getelementptr inbounds nuw i8, ptr %13, i64 120
  %20 = load ptr, ptr %19, align 8
  %21 = icmp eq ptr %20, null
  br i1 %21, label %.backedge, label %22

22:                                               ; preds = %18
  %23 = load i8, ptr %20, align 1
  %24 = icmp eq i8 %23, 0
  br i1 %24, label %.backedge, label %26

.backedge:                                        ; preds = %18, %22, %31, %12, %26
  %25 = tail call ptr @list_next(ptr noundef %9) #11
  %.not = icmp eq ptr %25, null
  br i1 %.not, label %._crit_edge, label %12, !llvm.loop !21

26:                                               ; preds = %22
  %27 = getelementptr inbounds nuw i8, ptr %13, i64 912
  %28 = load i64, ptr %27, align 8
  %29 = icmp eq i64 %28, 0
  %30 = icmp sgt i64 %28, %11
  %or.cond = select i1 %29, i1 true, i1 %30
  br i1 %or.cond, label %.backedge, label %31

31:                                               ; preds = %26
  tail call void @list_push(ptr noundef %7, ptr noundef nonnull %13) #11
  br label %.backedge

._crit_edge:                                      ; preds = %.backedge, %0
  tail call void @list_iterator_destroy(ptr noundef %9) #11
  tail call void @list_sort(ptr noundef %7, ptr noundef nonnull @_sort_job_queue) #11
  %32 = tail call i32 @pthread_mutex_lock(ptr noundef nonnull @g_context_lock) #11
  %.not32 = icmp eq i32 %32, 0
  br i1 %.not32, label %.preheader, label %35

.preheader:                                       ; preds = %._crit_edge
  %33 = load i32, ptr @g_context_cnt, align 4
  %34 = icmp sgt i32 %33, 0
  br i1 %34, label %.lr.ph39, label %._crit_edge40

35:                                               ; preds = %._crit_edge
  %36 = tail call ptr @__errno_location() #12
  store i32 %32, ptr %36, align 4
  tail call void (ptr, ...) @fatal_abort(ptr noundef nonnull @.str.1, ptr noundef nonnull @__func__.bb_g_job_try_stage_in) #13
  unreachable

.lr.ph39:                                         ; preds = %.preheader, %.lr.ph39
  %indvars.iv = phi i64 [ %indvars.iv.next, %.lr.ph39 ], [ 0, %.preheader ]
  %.02537 = phi i32 [ %41, %.lr.ph39 ], [ 1, %.preheader ]
  %37 = load ptr, ptr @ops, align 8
  %38 = getelementptr inbounds nuw %struct.slurm_bb_ops, ptr %37, i64 %indvars.iv, i32 10
  %39 = load ptr, ptr %38, align 8
  %40 = tail call i32 %39(ptr noundef %7) #11
  %41 = tail call i32 @llvm.smax.i32(i32 %.02537, i32 %40)
  %indvars.iv.next = add nuw nsw i64 %indvars.iv, 1
  %42 = load i32, ptr @g_context_cnt, align 4
  %43 = sext i32 %42 to i64
  %44 = icmp slt i64 %indvars.iv.next, %43
  br i1 %44, label %.lr.ph39, label %._crit_edge40, !llvm.loop !22

._crit_edge40:                                    ; preds = %.lr.ph39, %.preheader
  %.025.lcssa = phi i32 [ 1, %.preheader ], [ %41, %.lr.ph39 ]
  %45 = tail call i32 @pthread_mutex_unlock(ptr noundef nonnull @g_context_lock) #11
  %.not33 = icmp eq i32 %45, 0
  br i1 %.not33, label %48, label %46

46:                                               ; preds = %._crit_edge40
  %47 = tail call ptr @__errno_location() #12
  store i32 %45, ptr %47, align 4
  tail call void (ptr, ...) @fatal_abort(ptr noundef nonnull @.str.8, ptr noundef nonnull @__func__.bb_g_job_try_stage_in) #13
  unreachable

48:                                               ; preds = %._crit_edge40
  %.not34 = icmp eq ptr %7, null
  br i1 %.not34, label %50, label %49

49:                                               ; preds = %48
  tail call void @list_destroy(ptr noundef nonnull %7) #11
  br label %50

50:                                               ; preds = %49, %48
  %51 = call i32 @gettimeofday(ptr noundef nonnull %2, ptr noundef null) #11
  call void @slurm_diff_tv_str(ptr noundef nonnull %1, ptr noundef nonnull %2, ptr noundef nonnull %3, i32 noundef 20, ptr noundef nonnull @__func__.bb_g_job_try_stage_in, i64 noundef 0, ptr noundef nonnull %4) #11
  call void @llvm.lifetime.end.p0(i64 8, ptr nonnull %4) #11
  call void @llvm.lifetime.end.p0(i64 20, ptr nonnull %3) #11
  call void @llvm.lifetime.end.p0(i64 16, ptr nonnull %2) #11
  call void @llvm.lifetime.end.p0(i64 16, ptr nonnull %1) #11
  ret i32 %.025.lcssa
}